target datalayout = "e-m:e-p270:32:32-p271:32:32-p272:64:64-i64:64-i128:128-f80:128-n8:16:32:64-S128"
target triple = "x86_64-pc-linux-gnu"

%struct.file_stream = type { i32, ptr, i8, ptr, ptr, i64 }

@.str.15 = private unnamed_addr constant [63 x i8] c"%s: file is probably too large to be processed by this program\00", align 1
@.str.25 = private unnamed_addr constant [41 x i8] c"Bug in libdeflate_gzip_compress_bound()!\00", align 1

; Function Attrs: nounwind uwtable
define internal i32 @do_compress(ptr noundef %0, ptr noundef %1, ptr noundef %2) #0 {
  %4 = alloca ptr, align 8
  %5 = alloca ptr, align 8
  %6 = alloca ptr, align 8
  %7 = alloca ptr, align 8
  %8 = alloca i64, align 8
  %9 = alloca ptr, align 8
  %10 = alloca i64, align 8
  %11 = alloca i64, align 8
  %12 = alloca i32, align 4
  store ptr %0, ptr %4, align 8, !tbaa !31
  store ptr %1, ptr %5, align 8, !tbaa !42
  store ptr %2, ptr %6, align 8, !tbaa !42
  call void @llvm.lifetime.start.p0(i64 8, ptr %7) #9
  %13 = load ptr, ptr %5, align 8, !tbaa !42
  %14 = getelementptr inbounds nuw %struct.file_stream, ptr %13, i32 0, i32 4
  %15 = load ptr, ptr %14, align 8, !tbaa !50
  store ptr %15, ptr %7, align 8, !tbaa !52
  call void @llvm.lifetime.start.p0(i64 8, ptr %8) #9
  %16 = load ptr, ptr %5, align 8, !tbaa !42
  %17 = getelementptr inbounds nuw %struct.file_stream, ptr %16, i32 0, i32 5
  %18 = load i64, ptr %17, align 8, !tbaa !51
  store i64 %18, ptr %8, align 8, !tbaa !41
  call void @llvm.lifetime.start.p0(i64 8, ptr %9) #9
  call void @llvm.lifetime.start.p0(i64 8, ptr %10) #9
  call void @llvm.lifetime.start.p0(i64 8, ptr %11) #9
  call void @llvm.lifetime.start.p0(i64 4, ptr %12) #9
  %19 = load ptr, ptr %4, align 8, !tbaa !31
  %20 = load i64, ptr %8, align 8, !tbaa !41
  %21 = call i64 @libdeflate_gzip_compress_bound(ptr noundef %19, i64 noundef %20)
  store i64 %21, ptr %11, align 8, !tbaa !41
  %22 = load i64, ptr %11, align 8, !tbaa !41
  %23 = call ptr @xmalloc(i64 noundef %22)
  store ptr %23, ptr %9, align 8, !tbaa !52
  %24 = load ptr, ptr %9, align 8, !tbaa !52
  %25 = icmp eq ptr %24, null
  br i1 %25, label %26, label %30

26:                                               ; preds = %3
  %27 = load ptr, ptr %5, align 8, !tbaa !42
  %28 = getelementptr inbounds nuw %struct.file_stream, ptr %27, i32 0, i32 1
  %29 = load ptr, ptr %28, align 8, !tbaa !46
  call void (ptr, ...) @msg(ptr noundef @.str.15, ptr noundef %29)
  store i32 -1, ptr %12, align 4, !tbaa !5
  br label %45

30:                                               ; preds = %3
  %31 = load ptr, ptr %4, align 8, !tbaa !31
  %32 = load ptr, ptr %7, align 8, !tbaa !52
  %33 = load i64, ptr %8, align 8, !tbaa !41
  %34 = load ptr, ptr %9, align 8, !tbaa !52
  %35 = load i64, ptr %11, align 8, !tbaa !41
  %36 = call i64 @libdeflate_gzip_compress(ptr noundef %31, ptr noundef %32, i64 noundef %33, ptr noundef %34, i64 noundef %35)
  store i64 %36, ptr %10, align 8, !tbaa !41
  %37 = load i64, ptr %10, align 8, !tbaa !41
  %38 = icmp eq i64 %37, 0
  br i1 %38, label %39, label %40

39:                                               ; preds = %30
  call void (ptr, ...) @msg(ptr noundef @.str.25)
  store i32 -1, ptr %12, align 4, !tbaa !5
  br label %45

40:                                               ; preds = %30
  %41 = load ptr, ptr %6, align 8, !tbaa !42
  %42 = load ptr, ptr %9, align 8, !tbaa !52
  %43 = load i64, ptr %10, align 8, !tbaa !41
  %44 = call i32 @full_write(ptr noundef %41, ptr noundef %42, i64 noundef %43)
  store i32 %44, ptr %12, align 4, !tbaa !5
  br label %45

45:                                               ; preds = %40, %39, %26
  %46 = load ptr, ptr %9, align 8, !tbaa !52
  call void @free(ptr noundef %46) #9
  %47 = load i32, ptr %12, align 4, !tbaa !5
  call void @llvm.lifetime.end.p0(i64 4, ptr %12) #9
  call void @llvm.lifetime.end.p0(i64 8, ptr %11) #9
  call void @llvm.lifetime.end.p0(i64 8, ptr %10) #9
  call void @llvm.lifetime.end.p0(i64 8, ptr %9) #9
  call void @llvm.lifetime.end.p0(i64 8, ptr %8) #9
  call void @llvm.lifetime.end.p0(i64 8, ptr %7) #9
  ret i32 %47
}