; Function Attrs: nounwind uwtable
define internal fastcc i32 @do_compress(ptr noundef nonnull %0, ptr noundef nonnull readonly captures(none) %1, ptr noundef nonnull %2) unnamed_addr #0 {
  %4 = getelementptr inbounds nuw i8, ptr %1, i64 32
  %5 = load ptr, ptr %4, align 8, !tbaa !29
  %6 = getelementptr inbounds nuw i8, ptr %1, i64 40
  %7 = load i64, ptr %6, align 8, !tbaa !30
  %8 = tail call i64 @libdeflate_gzip_compress_bound(ptr noundef nonnull %0, i64 noundef %7) #11
  %9 = tail call ptr @xmalloc(i64 noundef %8) #11
  %10 = icmp eq ptr %9, null
  br i1 %10, label %11, label %14

11:                                               ; preds = %3
  %12 = getelementptr inbounds nuw i8, ptr %1, i64 8
  %13 = load ptr, ptr %12, align 8, !tbaa !20
  tail call void (ptr, ...) @msg(ptr noundef nonnull @.str.15, ptr noundef %13) #11
  br label %20

14:                                               ; preds = %3
  %15 = tail call i64 @libdeflate_gzip_compress(ptr noundef nonnull %0, ptr noundef %5, i64 noundef %7, ptr noundef nonnull %9, i64 noundef %8) #11
  %16 = icmp eq i64 %15, 0
  br i1 %16, label %17, label %18

17:                                               ; preds = %14
  tail call void (ptr, ...) @msg(ptr noundef nonnull @.str.25) #11
  br label %20

18:                                               ; preds = %14
  %19 = tail call i32 @full_write(ptr noundef nonnull %2, ptr noundef nonnull %9, i64 noundef %15) #11
  br label %20

20:                                               ; preds = %18, %17, %11
  %.0 = phi i32 [ -1, %11 ], [ -1, %17 ], [ %19, %18 ]
  tail call void @free(ptr noundef %9) #11
  ret i32 %.0
}